; Function Attrs: mustprogress uwtable
define hidden noundef zeroext i1 @_ZN18OpenImageIO_v2_6_08RLAInput5closeEv(ptr noundef nonnull align 8 dereferenceable(1024) %this) unnamed_addr #5 align 2 personality ptr @__gxx_personality_v0 {
entry:
  tail call void @_ZN18OpenImageIO_v2_6_010ImageInput13ioproxy_clearEv(ptr noundef nonnull align 8 dereferenceable(184) %this)
  %m_buf.i = getelementptr inbounds i8, ptr %this, i64 960
  %0 = load ptr, ptr %m_buf.i, align 8
  %_M_finish.i.i.i = getelementptr inbounds i8, ptr %this, i64 968
  %1 = load ptr, ptr %_M_finish.i.i.i, align 8
  %tobool.not.i.i.i = icmp eq ptr %1, %0
  br i1 %tobool.not.i.i.i, label %_ZN18OpenImageIO_v2_6_08RLAInput4initEv.exit, label %invoke.cont.i.i.i

invoke.cont.i.i.i:                                ; preds = %entry
  store ptr %0, ptr %_M_finish.i.i.i, align 8
  br label %_ZN18OpenImageIO_v2_6_08RLAInput4initEv.exit

_ZN18OpenImageIO_v2_6_08RLAInput4initEv.exit:     ; preds = %entry, %invoke.cont.i.i.i
  ret i1 true
}